target datalayout = "e-m:e-p270:32:32-p271:32:32-p272:64:64-i64:64-i128:128-f80:128-n8:16:32:64-S128"
target triple = "x86_64-pc-linux-gnu"

%struct.slurm_conf_t = type { i64, ptr, i16, ptr, ptr, ptr, ptr, ptr, i16, ptr, ptr, ptr, ptr, ptr, ptr, ptr, i16, ptr, ptr, ptr, ptr, i16, ptr, ptr, ptr, i64, ptr, ptr, ptr, ptr, i16, ptr, ptr, i16, i32, ptr, i32, ptr, i32, i32, ptr, ptr, i64, i64, ptr, i16, i16, ptr, i32, i32, ptr, i32, ptr, i32, i16, i16, i16, ptr, i16, i16, ptr, ptr, i32, i16, i16, ptr, i32, i16, ptr, ptr, ptr, ptr, i16, ptr, ptr, ptr, ptr, i32, ptr, ptr, ptr, ptr, i16, i16, ptr, i32, i32, i32, i16, i16, ptr, ptr, i16, ptr, ptr, i32, i32, i32, i32, i32, i64, i32, i32, i16, ptr, ptr, i32, ptr, ptr, ptr, i16, i32, ptr, ptr, i16, ptr, ptr, i32, i16, ptr, ptr, ptr, ptr, i32, i32, i16, i16, i32, ptr, i16, ptr, i32, i32, i32, i32, i32, i32, ptr, i16, ptr, ptr, i32, i16, ptr, i32, i16, i16, ptr, ptr, ptr, i16, ptr, ptr, ptr, ptr, i16, i16, ptr, i16, ptr, i16, ptr, i16, ptr, i16, ptr, ptr, ptr, ptr, i16, ptr, ptr, ptr, i32, ptr, i32, ptr, ptr, i16, ptr, ptr, i32, i16, ptr, ptr, i16, i16, ptr, i16, ptr, ptr, ptr, i32, ptr, i16, i16, ptr, ptr, ptr, ptr, ptr, ptr, ptr, ptr, i16, i32, i16, ptr, ptr, ptr, ptr, i32, ptr, ptr, ptr, i16, ptr, ptr, ptr, i16, ptr, i16, ptr, i16, i16, ptr }

@node_record_count = external global i32, align 4
@slurm_conf = external global %struct.slurm_conf_t, align 8
@.str.1 = private unnamed_addr constant [3 x i8] c"%s\00", align 1
@.str.2 = private unnamed_addr constant [13 x i8] c"node_list:%s\00", align 1
@.str.3 = private unnamed_addr constant [1 x i8] zeroinitializer, align 1
@.str.4 = private unnamed_addr constant [14 x i8] c"%snode[%d]:%s\00", align 1
@.str.5 = private unnamed_addr constant [2 x i8] c",\00", align 1
@.str.6 = private unnamed_addr constant [13 x i8] c"core_list:%s\00", align 1

; Function Attrs: nounwind uwtable
define dso_local void @core_array_log(ptr noundef %0, ptr noundef %1, ptr noundef %2) #0 {
  %4 = alloca ptr, align 8
  %5 = alloca ptr, align 8
  %6 = alloca ptr, align 8
  %7 = alloca [100 x i8], align 16
  %8 = alloca i32, align 4
  %9 = alloca ptr, align 8
  %10 = alloca ptr, align 8
  %11 = alloca ptr, align 8
  %12 = alloca i32, align 4
  store ptr %0, ptr %4, align 8
  store ptr %1, ptr %5, align 8
  store ptr %2, ptr %6, align 8
  call void @llvm.lifetime.start.p0(i64 100, ptr %7) #3
  %13 = load i64, ptr getelementptr inbounds nuw (%struct.slurm_conf_t, ptr @slurm_conf, i32 0, i32 42), align 8
  %14 = and i64 %13, 1
  %15 = icmp ne i64 %14, 0
  br i1 %15, label %17, label %16

16:                                               ; preds = %3
  store i32 1, ptr %8, align 4
  br label %97

17:                                               ; preds = %3
  br label %18

18:                                               ; preds = %17
  br label %19

19:                                               ; preds = %18
  %20 = call i32 @get_log_level()
  %21 = icmp sge i32 %20, 4
  br i1 %21, label %22, label %24

22:                                               ; preds = %19
  %23 = load ptr, ptr %4, align 8
  call void (i32, ptr, ...) @log_var(i32 noundef 4, ptr noundef @.str.1, ptr noundef %23)
  br label %24

24:                                               ; preds = %22, %19
  br label %25

25:                                               ; preds = %24
  br label %26

26:                                               ; preds = %25
  br label %27

27:                                               ; preds = %26
  br label %28

28:                                               ; preds = %27
  %29 = load ptr, ptr %5, align 8
  %30 = icmp ne ptr %29, null
  br i1 %30, label %31, label %45

31:                                               ; preds = %28
  call void @llvm.lifetime.start.p0(i64 8, ptr %9) #3
  %32 = load ptr, ptr %5, align 8
  %33 = call ptr @bitmap2node_name(ptr noundef %32)
  store ptr %33, ptr %9, align 8
  br label %34

34:                                               ; preds = %31
  br label %35

35:                                               ; preds = %34
  %36 = call i32 @get_log_level()
  %37 = icmp sge i32 %36, 4
  br i1 %37, label %38, label %40

38:                                               ; preds = %35
  %39 = load ptr, ptr %9, align 8
  call void (i32, ptr, ...) @log_var(i32 noundef 4, ptr noundef @.str.2, ptr noundef %39)
  br label %40

40:                                               ; preds = %38, %35
  br label %41

41:                                               ; preds = %40
  br label %42

42:                                               ; preds = %41
  br label %43

43:                                               ; preds = %42
  br label %44

44:                                               ; preds = %43
  call void @slurm_xfree(ptr noundef %9)
  call void @llvm.lifetime.end.p0(i64 8, ptr %9) #3
  br label %45

45:                                               ; preds = %44, %28
  %46 = load ptr, ptr %6, align 8
  %47 = icmp ne ptr %46, null
  br i1 %47, label %48, label %96

48:                                               ; preds = %45
  call void @llvm.lifetime.start.p0(i64 8, ptr %10) #3
  store ptr null, ptr %10, align 8
  call void @llvm.lifetime.start.p0(i64 8, ptr %11) #3
  store ptr @.str.3, ptr %11, align 8
  call void @llvm.lifetime.start.p0(i64 4, ptr %12) #3
  store i32 0, ptr %12, align 4
  br label %49

49:                                               ; preds = %81, %48
  %50 = load i32, ptr %12, align 4
  %51 = load i32, ptr @node_record_count, align 4
  %52 = icmp slt i32 %50, %51
  br i1 %52, label %54, label %53

53:                                               ; preds = %49
  store i32 10, ptr %8, align 4
  call void @llvm.lifetime.end.p0(i64 4, ptr %12) #3
  br label %84

54:                                               ; preds = %49
  %55 = load ptr, ptr %6, align 8
  %56 = load i32, ptr %12, align 4
  %57 = sext i32 %56 to i64
  %58 = getelementptr inbounds ptr, ptr %55, i64 %57
  %59 = load ptr, ptr %58, align 8
  %60 = icmp ne ptr %59, null
  br i1 %60, label %61, label %69

61:                                               ; preds = %54
  %62 = load ptr, ptr %6, align 8
  %63 = load i32, ptr %12, align 4
  %64 = sext i32 %63 to i64
  %65 = getelementptr inbounds ptr, ptr %62, i64 %64
  %66 = load ptr, ptr %65, align 8
  %67 = call i64 @bit_ffs(ptr noundef %66)
  %68 = icmp eq i64 %67, -1
  br i1 %68, label %69, label %70

69:                                               ; preds = %61, %54
  br label %81

70:                                               ; preds = %61
  %71 = getelementptr inbounds [100 x i8], ptr %7, i64 0, i64 0
  %72 = load ptr, ptr %6, align 8
  %73 = load i32, ptr %12, align 4
  %74 = sext i32 %73 to i64
  %75 = getelementptr inbounds ptr, ptr %72, i64 %74
  %76 = load ptr, ptr %75, align 8
  %77 = call ptr @bit_fmt(ptr noundef %71, i32 noundef 100, ptr noundef %76)
  %78 = load ptr, ptr %11, align 8
  %79 = load i32, ptr %12, align 4
  %80 = getelementptr inbounds [100 x i8], ptr %7, i64 0, i64 0
  call void (ptr, ptr, ...) @_xstrfmtcat(ptr noundef %10, ptr noundef @.str.4, ptr noundef %78, i32 noundef %79, ptr noundef %80)
  store ptr @.str.5, ptr %11, align 8
  br label %81

81:                                               ; preds = %70, %69
  %82 = load i32, ptr %12, align 4
  %83 = add nsw i32 %82, 1
  store i32 %83, ptr %12, align 4
  br label %49, !llvm.loop !18

84:                                               ; preds = %53
  br label %85

85:                                               ; preds = %84
  br label %86

86:                                               ; preds = %85
  %87 = call i32 @get_log_level()
  %88 = icmp sge i32 %87, 4
  br i1 %88, label %89, label %91

89:                                               ; preds = %86
  %90 = load ptr, ptr %10, align 8
  call void (i32, ptr, ...) @log_var(i32 noundef 4, ptr noundef @.str.6, ptr noundef %90)
  br label %91

91:                                               ; preds = %89, %86
  br label %92

92:                                               ; preds = %91
  br label %93

93:                                               ; preds = %92
  br label %94

94:                                               ; preds = %93
  br label %95

95:                                               ; preds = %94
  call void @slurm_xfree(ptr noundef %10)
  call void @llvm.lifetime.end.p0(i64 8, ptr %11) #3
  call void @llvm.lifetime.end.p0(i64 8, ptr %10) #3
  br label %96

96:                                               ; preds = %95, %45
  store i32 0, ptr %8, align 4
  br label %97

97:                                               ; preds = %96, %16
  call void @llvm.lifetime.end.p0(i64 100, ptr %7) #3
  %98 = load i32, ptr %8, align 4
  switch i32 %98, label %100 [
    i32 0, label %99
    i32 1, label %99
  ]

99:                                               ; preds = %97, %97
  ret void

100:                                              ; preds = %97
  unreachable
}