; Function Attrs: nounwind uwtable
define dso_local void @core_array_log(ptr noundef %0, ptr noundef %1, ptr noundef readonly captures(address_is_null) %2) local_unnamed_addr #0 {
  %4 = alloca [100 x i8], align 16
  %5 = alloca ptr, align 8
  %6 = alloca ptr, align 8
  call void @llvm.lifetime.start.p0(i64 100, ptr nonnull %4) #3
  %7 = load i64, ptr getelementptr inbounds nuw (i8, ptr @slurm_conf, i64 320), align 8
  %8 = and i64 %7, 1
  %.not = icmp eq i64 %8, 0
  br i1 %.not, label %42, label %9

9:                                                ; preds = %3
  %10 = tail call i32 @get_log_level() #3
  %11 = icmp sgt i32 %10, 3
  br i1 %11, label %12, label %13

12:                                               ; preds = %9
  tail call void (i32, ptr, ...) @log_var(i32 noundef 4, ptr noundef nonnull @.str.1, ptr noundef %0) #3
  br label %13

13:                                               ; preds = %12, %9
  %.not17 = icmp eq ptr %1, null
  br i1 %.not17, label %20, label %14

14:                                               ; preds = %13
  call void @llvm.lifetime.start.p0(i64 8, ptr nonnull %5) #3
  %15 = tail call ptr @bitmap2node_name(ptr noundef nonnull %1) #3
  store ptr %15, ptr %5, align 8
  %16 = tail call i32 @get_log_level() #3
  %17 = icmp sgt i32 %16, 3
  br i1 %17, label %18, label %19

18:                                               ; preds = %14
  tail call void (i32, ptr, ...) @log_var(i32 noundef 4, ptr noundef nonnull @.str.2, ptr noundef %15) #3
  br label %19

19:                                               ; preds = %18, %14
  call void @slurm_xfree(ptr noundef nonnull %5) #3
  call void @llvm.lifetime.end.p0(i64 8, ptr nonnull %5) #3
  br label %20

20:                                               ; preds = %19, %13
  %.not18 = icmp eq ptr %2, null
  br i1 %.not18, label %42, label %21

21:                                               ; preds = %20
  call void @llvm.lifetime.start.p0(i64 8, ptr nonnull %6) #3
  store ptr null, ptr %6, align 8
  %22 = load i32, ptr @node_record_count, align 4
  %23 = icmp sgt i32 %22, 0
  br i1 %23, label %.lr.ph, label %._crit_edge

._crit_edge:                                      ; preds = %35, %21
  %24 = call i32 @get_log_level() #3
  %25 = icmp sgt i32 %24, 3
  br i1 %25, label %39, label %41

.lr.ph:                                           ; preds = %21, %35
  %indvars.iv = phi i64 [ %indvars.iv.next, %35 ], [ 0, %21 ]
  %.01320 = phi ptr [ %.1, %35 ], [ @.str.3, %21 ]
  %26 = getelementptr inbounds nuw ptr, ptr %2, i64 %indvars.iv
  %27 = load ptr, ptr %26, align 8
  %.not19 = icmp eq ptr %27, null
  br i1 %.not19, label %35, label %28

28:                                               ; preds = %.lr.ph
  %29 = call i64 @bit_ffs(ptr noundef nonnull %27) #3
  %30 = icmp eq i64 %29, -1
  br i1 %30, label %35, label %31

31:                                               ; preds = %28
  %32 = load ptr, ptr %26, align 8
  %33 = call ptr @bit_fmt(ptr noundef nonnull %4, i32 noundef 100, ptr noundef %32) #3
  %34 = trunc nuw nsw i64 %indvars.iv to i32
  call void (ptr, ptr, ...) @_xstrfmtcat(ptr noundef nonnull %6, ptr noundef nonnull @.str.4, ptr noundef %.01320, i32 noundef %34, ptr noundef nonnull %4) #3
  br label %35

35:                                               ; preds = %.lr.ph, %28, %31
  %.1 = phi ptr [ %.01320, %28 ], [ @.str.5, %31 ], [ %.01320, %.lr.ph ]
  %indvars.iv.next = add nuw nsw i64 %indvars.iv, 1
  %36 = load i32, ptr @node_record_count, align 4
  %37 = sext i32 %36 to i64
  %38 = icmp slt i64 %indvars.iv.next, %37
  br i1 %38, label %.lr.ph, label %._crit_edge, !llvm.loop !18

39:                                               ; preds = %._crit_edge
  %40 = load ptr, ptr %6, align 8
  call void (i32, ptr, ...) @log_var(i32 noundef 4, ptr noundef nonnull @.str.6, ptr noundef %40) #3
  br label %41

41:                                               ; preds = %39, %._crit_edge
  call void @slurm_xfree(ptr noundef nonnull %6) #3
  call void @llvm.lifetime.end.p0(i64 8, ptr nonnull %6) #3
  br label %42

42:                                               ; preds = %20, %41, %3
  call void @llvm.lifetime.end.p0(i64 100, ptr nonnull %4) #3
  ret void
}